target datalayout = "e-m:e-p270:32:32-p271:32:32-p272:64:64-i64:64-i128:128-f80:128-n8:16:32:64-S128"
target triple = "x86_64-pc-linux-gnu"

%"class.std::__cxx11::basic_string" = type { %"struct.std::__cxx11::basic_string<char>::_Alloc_hider", i64, %union.anon }
%"struct.std::__cxx11::basic_string<char>::_Alloc_hider" = type { ptr }
%union.anon = type { i64, [8 x i8] }
%class.DfgVertex = type { ptr, %class.V3ListLinks, ptr, ptr, ptr, ptr, %class.VDfgType, i32, ptr }
%class.V3ListLinks = type { ptr, ptr }
%class.VDfgType = type { i16 }
%class.V3Hash = type { i32 }
%class.DfgVertexVar = type <{ %class.DfgVertexVariadic, ptr, i8, i8, i8, [5 x i8] }>
%class.DfgVertexVariadic = type { %class.DfgVertex, ptr, i32, i32 }
%class.VVarType = type { i8 }
%class.AstVar = type <{ %class.AstNode, %"class.std::__cxx11::basic_string", %"class.std::__cxx11::basic_string", %"class.std::__cxx11::basic_string", %class.VVarType, %class.VDirection, %class.VDirection, %class.VLifetime, %class.VVarAttrClocker, [3 x i8], i32, i48, [4 x i8], ptr }>
%class.AstNode = type { ptr, ptr, ptr, ptr, ptr, ptr, ptr, ptr, %class.VNType, %struct.anon, i8, i32, ptr, ptr, ptr, ptr, %class.VNUser, i32, i32, %class.VNUser, %class.VNUser, i32, i32, %class.VNUser }
%class.VNType = type { i16 }
%struct.anon = type { i8 }
%class.VNUser = type { %union.anon.2 }
%union.anon.2 = type { ptr }
%class.VDirection = type { i8 }
%class.VLifetime = type { i8 }
%class.VVarAttrClocker = type { i8 }

; Function Attrs: mustprogress nounwind uwtable
define linkonce_odr dso_local void @_ZN6V3HashC2Ei(ptr noundef nonnull align 4 dereferenceable(4) %0, i32 noundef %1) unnamed_addr #5 comdat align 2 {
  %3 = alloca ptr, align 8
  %4 = alloca i32, align 4
  store ptr %0, ptr %3, align 8
  store i32 %1, ptr %4, align 4
  %5 = load ptr, ptr %3, align 8
  %6 = getelementptr inbounds %class.V3Hash, ptr %5, i32 0, i32 0
  %7 = load i32, ptr %4, align 4
  store i32 %7, ptr %6, align 4
  ret void
}

; Function Attrs: mustprogress nounwind uwtable
define linkonce_odr dso_local noundef zeroext i8 @_ZNK8VVarTypecvNS_2enEEv(ptr noundef nonnull align 1 dereferenceable(1) %0) #5 comdat align 2 {
  %2 = alloca ptr, align 8
  store ptr %0, ptr %2, align 8
  %3 = load ptr, ptr %2, align 8
  %4 = getelementptr inbounds %class.VVarType, ptr %3, i32 0, i32 0
  %5 = load i8, ptr %4, align 1
  ret i8 %5
}

; Function Attrs: mustprogress nounwind uwtable
define linkonce_odr dso_local void @_ZN6V3HashC2Ej(ptr noundef nonnull align 4 dereferenceable(4) %0, i32 noundef %1) unnamed_addr #5 comdat align 2 {
  %3 = alloca ptr, align 8
  %4 = alloca i32, align 4
  store ptr %0, ptr %3, align 8
  store i32 %1, ptr %4, align 4
  %5 = load ptr, ptr %3, align 8
  %6 = getelementptr inbounds %class.V3Hash, ptr %5, i32 0, i32 0
  %7 = load i32, ptr %4, align 4
  store i32 %7, ptr %6, align 4
  ret void
}

; Function Attrs: mustprogress nounwind uwtable
define linkonce_odr dso_local noundef i32 @_ZN6V3Hash7combineEjj(i32 noundef %0, i32 noundef %1) #5 comdat align 2 {
  %3 = alloca i32, align 4
  %4 = alloca i32, align 4
  store i32 %0, ptr %3, align 4
  store i32 %1, ptr %4, align 4
  %5 = load i32, ptr %3, align 4
  %6 = load i32, ptr %4, align 4
  %7 = add i32 %6, -1640531527
  %8 = load i32, ptr %3, align 4
  %9 = shl i32 %8, 6
  %10 = add i32 %7, %9
  %11 = load i32, ptr %3, align 4
  %12 = lshr i32 %11, 2
  %13 = add i32 %10, %12
  %14 = xor i32 %5, %13
  ret i32 %14
}

; Function Attrs: mustprogress uwtable
define linkonce_odr dso_local i32 @_ZNK6V3HashplI8VVarTypeEES_T_(ptr noundef nonnull align 4 dereferenceable(4) %0, i8 %1) #4 comdat align 2 {
  %3 = alloca %class.V3Hash, align 4
  %4 = alloca %class.VVarType, align 1
  %5 = alloca ptr, align 8
  %6 = alloca %class.V3Hash, align 4
  %7 = getelementptr inbounds %class.VVarType, ptr %4, i32 0, i32 0
  store i8 %1, ptr %7, align 1
  store ptr %0, ptr %5, align 8
  %8 = load ptr, ptr %5, align 8
  %9 = getelementptr inbounds %class.V3Hash, ptr %8, i32 0, i32 0
  %10 = load i32, ptr %9, align 4
  %11 = call noundef zeroext i8 @_ZNK8VVarTypecvNS_2enEEv(ptr noundef nonnull align 1 dereferenceable(1) %4)
  %12 = zext i8 %11 to i32
  call void @_ZN6V3HashC2Ei(ptr noundef nonnull align 4 dereferenceable(4) %6, i32 noundef %12)
  %13 = getelementptr inbounds %class.V3Hash, ptr %6, i32 0, i32 0
  %14 = load i32, ptr %13, align 4
  %15 = call noundef i32 @_ZN6V3Hash7combineEjj(i32 noundef %10, i32 noundef %14)
  call void @_ZN6V3HashC2Ej(ptr noundef nonnull align 4 dereferenceable(4) %3, i32 noundef %15)
  %16 = getelementptr inbounds %class.V3Hash, ptr %3, i32 0, i32 0
  %17 = load i32, ptr %16, align 4
  ret i32 %17
}

; Function Attrs: mustprogress uwtable
define linkonce_odr dso_local i32 @_ZNK6V3HashplINSt7__cxx1112basic_stringIcSt11char_traitsIcESaIcEEEEES_T_(ptr noundef nonnull align 4 dereferenceable(4) %0, ptr noundef %1) #4 comdat align 2 {
  %3 = alloca %class.V3Hash, align 4
  %4 = alloca ptr, align 8
  %5 = alloca ptr, align 8
  %6 = alloca %class.V3Hash, align 4
  store ptr %0, ptr %4, align 8
  store ptr %1, ptr %5, align 8
  %7 = load ptr, ptr %4, align 8
  %8 = getelementptr inbounds %class.V3Hash, ptr %7, i32 0, i32 0
  %9 = load i32, ptr %8, align 4
  call void @_ZN6V3HashC1ERKNSt7__cxx1112basic_stringIcSt11char_traitsIcESaIcEEE(ptr noundef nonnull align 4 dereferenceable(4) %6, ptr noundef nonnull align 8 dereferenceable(32) %1)
  %10 = getelementptr inbounds %class.V3Hash, ptr %6, i32 0, i32 0
  %11 = load i32, ptr %10, align 4
  %12 = call noundef i32 @_ZN6V3Hash7combineEjj(i32 noundef %9, i32 noundef %11)
  call void @_ZN6V3HashC2Ej(ptr noundef nonnull align 4 dereferenceable(4) %3, i32 noundef %12)
  %13 = getelementptr inbounds %class.V3Hash, ptr %3, i32 0, i32 0
  %14 = load i32, ptr %13, align 4
  ret i32 %14
}

; Function Attrs: mustprogress uwtable
define linkonce_odr dso_local noundef nonnull align 4 dereferenceable(4) ptr @_ZN6V3HashpLI8VVarTypeEERS_T_(ptr noundef nonnull align 4 dereferenceable(4) %0, i8 %1) #4 comdat align 2 {
  %3 = alloca %class.VVarType, align 1
  %4 = alloca ptr, align 8
  %5 = alloca %class.V3Hash, align 4
  %6 = alloca %class.VVarType, align 1
  %7 = getelementptr inbounds %class.VVarType, ptr %3, i32 0, i32 0
  store i8 %1, ptr %7, align 1
  store ptr %0, ptr %4, align 8
  %8 = load ptr, ptr %4, align 8
  call void @llvm.memcpy.p0.p0.i64(ptr align 1 %6, ptr align 1 %3, i64 1, i1 false)
  %9 = getelementptr inbounds %class.VVarType, ptr %6, i32 0, i32 0
  %10 = load i8, ptr %9, align 1
  %11 = call i32 @_ZNK6V3HashplI8VVarTypeEES_T_(ptr noundef nonnull align 4 dereferenceable(4) %8, i8 %10)
  %12 = getelementptr inbounds %class.V3Hash, ptr %5, i32 0, i32 0
  store i32 %11, ptr %12, align 4
  call void @llvm.memcpy.p0.p0.i64(ptr align 4 %8, ptr align 4 %5, i64 4, i1 false)
  ret ptr %8
}

; Function Attrs: mustprogress nounwind uwtable
define linkonce_odr dso_local i8 @_ZNK6AstVar7varTypeEv(ptr noundef nonnull align 8 dereferenceable(280) %0) #5 comdat align 2 {
  %2 = alloca %class.VVarType, align 1
  %3 = alloca ptr, align 8
  store ptr %0, ptr %3, align 8
  %4 = load ptr, ptr %3, align 8
  %5 = getelementptr inbounds %class.AstVar, ptr %4, i32 0, i32 4
  call void @llvm.memcpy.p0.p0.i64(ptr align 1 %2, ptr align 8 %5, i64 1, i1 false)
  %6 = getelementptr inbounds %class.VVarType, ptr %2, i32 0, i32 0
  %7 = load i8, ptr %6, align 1
  ret i8 %7
}

; Function Attrs: mustprogress uwtable
define linkonce_odr dso_local noundef nonnull align 4 dereferenceable(4) ptr @_ZN6V3HashpLINSt7__cxx1112basic_stringIcSt11char_traitsIcESaIcEEEEERS_T_(ptr noundef nonnull align 4 dereferenceable(4) %0, ptr noundef %1) #4 comdat align 2 personality ptr @__gxx_personality_v0 {
  %3 = alloca ptr, align 8
  %4 = alloca ptr, align 8
  %5 = alloca %class.V3Hash, align 4
  %6 = alloca %"class.std::__cxx11::basic_string", align 8
  %7 = alloca ptr, align 8
  %8 = alloca i32, align 4
  store ptr %0, ptr %3, align 8
  store ptr %1, ptr %4, align 8
  %9 = load ptr, ptr %3, align 8
  call void @_ZNSt7__cxx1112basic_stringIcSt11char_traitsIcESaIcEEC1ERKS4_(ptr noundef nonnull align 8 dereferenceable(32) %6, ptr noundef nonnull align 8 dereferenceable(32) %1)
  %10 = invoke i32 @_ZNK6V3HashplINSt7__cxx1112basic_stringIcSt11char_traitsIcESaIcEEEEES_T_(ptr noundef nonnull align 4 dereferenceable(4) %9, ptr noundef %6)
          to label %11 unwind label %13

11:                                               ; preds = %2
  %12 = getelementptr inbounds %class.V3Hash, ptr %5, i32 0, i32 0
  store i32 %10, ptr %12, align 4
  call void @llvm.memcpy.p0.p0.i64(ptr align 4 %9, ptr align 4 %5, i64 4, i1 false)
  call void @_ZNSt7__cxx1112basic_stringIcSt11char_traitsIcESaIcEED1Ev(ptr noundef nonnull align 8 dereferenceable(32) %6) #3
  ret ptr %9

13:                                               ; preds = %2
  %14 = landingpad { ptr, i32 }
          cleanup
  %15 = extractvalue { ptr, i32 } %14, 0
  store ptr %15, ptr %7, align 8
  %16 = extractvalue { ptr, i32 } %14, 1
  store i32 %16, ptr %8, align 4
  call void @_ZNSt7__cxx1112basic_stringIcSt11char_traitsIcESaIcEED1Ev(ptr noundef nonnull align 8 dereferenceable(32) %6) #3
  br label %17

17:                                               ; preds = %13
  %18 = load ptr, ptr %7, align 8
  %19 = load i32, ptr %8, align 4
  %20 = insertvalue { ptr, i32 } poison, ptr %18, 0
  %21 = insertvalue { ptr, i32 } %20, i32 %19, 1
  resume { ptr, i32 } %21
}

; Function Attrs: mustprogress uwtable
define linkonce_odr dso_local void @_ZNK6AstVar4nameB5cxx11Ev(ptr dead_on_unwind noalias writable sret(%"class.std::__cxx11::basic_string") align 8 %0, ptr noundef nonnull align 8 dereferenceable(280) %1) unnamed_addr #4 comdat align 2 {
  %3 = alloca ptr, align 8
  %4 = alloca ptr, align 8
  store ptr %0, ptr %3, align 8
  store ptr %1, ptr %4, align 8
  %5 = load ptr, ptr %4, align 8
  %6 = getelementptr inbounds %class.AstVar, ptr %5, i32 0, i32 1
  call void @_ZNSt7__cxx1112basic_stringIcSt11char_traitsIcESaIcEEC1ERKS4_(ptr noundef nonnull align 8 dereferenceable(32) %0, ptr noundef nonnull align 8 dereferenceable(32) %6)
  ret void
}

; Function Attrs: mustprogress nounwind uwtable
define linkonce_odr dso_local void @_ZN6V3HashC2Ev(ptr noundef nonnull align 4 dereferenceable(4) %0) unnamed_addr #5 comdat align 2 {
  %2 = alloca ptr, align 8
  store ptr %0, ptr %2, align 8
  %3 = load ptr, ptr %2, align 8
  %4 = getelementptr inbounds %class.V3Hash, ptr %3, i32 0, i32 0
  store i32 0, ptr %4, align 4
  ret void
}

; Function Attrs: mustprogress uwtable
define dso_local i32 @_ZNK12DfgVertexVar8selfHashEv(ptr noundef nonnull align 8 dereferenceable(99) %0) unnamed_addr #4 align 2 personality ptr @__gxx_personality_v0 {
  %2 = alloca %class.V3Hash, align 4
  %3 = alloca ptr, align 8
  %4 = alloca %"class.std::__cxx11::basic_string", align 8
  %5 = alloca ptr, align 8
  %6 = alloca i32, align 4
  %7 = alloca %class.VVarType, align 1
  store ptr %0, ptr %3, align 8
  %8 = load ptr, ptr %3, align 8
  call void @_ZN6V3HashC2Ev(ptr noundef nonnull align 4 dereferenceable(4) %2)
  %9 = getelementptr inbounds %class.DfgVertexVar, ptr %8, i32 0, i32 1
  %10 = load ptr, ptr %9, align 8
  call void @_ZNK6AstVar4nameB5cxx11Ev(ptr dead_on_unwind writable sret(%"class.std::__cxx11::basic_string") align 8 %4, ptr noundef nonnull align 8 dereferenceable(280) %10)
  %11 = invoke noundef nonnull align 4 dereferenceable(4) ptr @_ZN6V3HashpLINSt7__cxx1112basic_stringIcSt11char_traitsIcESaIcEEEEERS_T_(ptr noundef nonnull align 4 dereferenceable(4) %2, ptr noundef %4)
          to label %12 unwind label %22

12:                                               ; preds = %1
  call void @_ZNSt7__cxx1112basic_stringIcSt11char_traitsIcESaIcEED1Ev(ptr noundef nonnull align 8 dereferenceable(32) %4) #3
  %13 = getelementptr inbounds %class.DfgVertexVar, ptr %8, i32 0, i32 1
  %14 = load ptr, ptr %13, align 8
  %15 = call i8 @_ZNK6AstVar7varTypeEv(ptr noundef nonnull align 8 dereferenceable(280) %14)
  %16 = getelementptr inbounds %class.VVarType, ptr %7, i32 0, i32 0
  store i8 %15, ptr %16, align 1
  %17 = getelementptr inbounds %class.VVarType, ptr %7, i32 0, i32 0
  %18 = load i8, ptr %17, align 1
  %19 = call noundef nonnull align 4 dereferenceable(4) ptr @_ZN6V3HashpLI8VVarTypeEERS_T_(ptr noundef nonnull align 4 dereferenceable(4) %2, i8 %18)
  %20 = getelementptr inbounds %class.V3Hash, ptr %2, i32 0, i32 0
  %21 = load i32, ptr %20, align 4
  ret i32 %21

22:                                               ; preds = %1
  %23 = landingpad { ptr, i32 }
          cleanup
  %24 = extractvalue { ptr, i32 } %23, 0
  store ptr %24, ptr %5, align 8
  %25 = extractvalue { ptr, i32 } %23, 1
  store i32 %25, ptr %6, align 4
  call void @_ZNSt7__cxx1112basic_stringIcSt11char_traitsIcESaIcEED1Ev(ptr noundef nonnull align 8 dereferenceable(32) %4) #3
  br label %26

26:                                               ; preds = %22
  %27 = load ptr, ptr %5, align 8
  %28 = load i32, ptr %6, align 4
  %29 = insertvalue { ptr, i32 } poison, ptr %27, 0
  %30 = insertvalue { ptr, i32 } %29, i32 %28, 1
  resume { ptr, i32 } %30
}