; Function Attrs: mustprogress uwtable
define dso_local i32 @_ZNK12DfgVertexVar8selfHashEv(ptr nocapture noundef nonnull readonly align 8 dereferenceable(99) %0) unnamed_addr #3 align 2 personality ptr @__gxx_personality_v0 {
  %2 = alloca %class.V3Hash, align 4
  %3 = alloca %"class.std::__cxx11::basic_string", align 8
  %4 = alloca %"class.std::__cxx11::basic_string", align 8
  %5 = getelementptr inbounds i8, ptr %0, i64 88
  %6 = load ptr, ptr %5, align 8
  %7 = getelementptr inbounds i8, ptr %6, i64 152
  call void @_ZNSt7__cxx1112basic_stringIcSt11char_traitsIcESaIcEEC1ERKS4_(ptr noundef nonnull align 8 dereferenceable(32) %4, ptr noundef nonnull align 8 dereferenceable(32) %7)
  call void @llvm.lifetime.start.p0(i64 32, ptr nonnull %3)
  invoke void @_ZNSt7__cxx1112basic_stringIcSt11char_traitsIcESaIcEEC1ERKS4_(ptr noundef nonnull align 8 dereferenceable(32) %3, ptr noundef nonnull align 8 dereferenceable(32) %4)
          to label %.noexc unwind label %22

.noexc:                                           ; preds = %1
  call void @llvm.lifetime.start.p0(i64 4, ptr nonnull %2)
  invoke void @_ZN6V3HashC1ERKNSt7__cxx1112basic_stringIcSt11char_traitsIcESaIcEEE(ptr noundef nonnull align 4 dereferenceable(4) %2, ptr noundef nonnull align 8 dereferenceable(32) %3)
          to label %10 unwind label %8

8:                                                ; preds = %.noexc
  %9 = landingpad { ptr, i32 }
          cleanup
  call void @_ZNSt7__cxx1112basic_stringIcSt11char_traitsIcESaIcEED1Ev(ptr noundef nonnull align 8 dereferenceable(32) %3) #28
  br label %.body

10:                                               ; preds = %.noexc
  %11 = load i32, ptr %2, align 4
  %12 = add i32 %11, -1640531527
  call void @llvm.lifetime.end.p0(i64 4, ptr nonnull %2)
  call void @_ZNSt7__cxx1112basic_stringIcSt11char_traitsIcESaIcEED1Ev(ptr noundef nonnull align 8 dereferenceable(32) %3) #28
  call void @llvm.lifetime.end.p0(i64 32, ptr nonnull %3)
  call void @_ZNSt7__cxx1112basic_stringIcSt11char_traitsIcESaIcEED1Ev(ptr noundef nonnull align 8 dereferenceable(32) %4) #28
  %13 = load ptr, ptr %5, align 8
  %14 = getelementptr inbounds i8, ptr %13, i64 248
  %.sroa.0.0.copyload.i = load i8, ptr %14, align 8
  %15 = zext i8 %.sroa.0.0.copyload.i to i32
  %16 = shl i32 %12, 6
  %17 = lshr i32 %12, 2
  %18 = add i32 %16, -1640531527
  %19 = add i32 %18, %17
  %20 = add i32 %19, %15
  %21 = xor i32 %20, %12
  ret i32 %21

22:                                               ; preds = %1
  %23 = landingpad { ptr, i32 }
          cleanup
  br label %.body

.body:                                            ; preds = %8, %22
  %eh.lpad-body = phi { ptr, i32 } [ %23, %22 ], [ %9, %8 ]
  call void @_ZNSt7__cxx1112basic_stringIcSt11char_traitsIcESaIcEED1Ev(ptr noundef nonnull align 8 dereferenceable(32) %4) #28
  resume { ptr, i32 } %eh.lpad-body
}